; Function Attrs: mustprogress uwtable
define hidden void @_ZN6google8protobuf29DescriptorProto_ReservedRange9MergeFromERKS1_(ptr noundef nonnull align 8 dereferenceable(32) %0, ptr noundef nonnull readonly align 8 captures(none) dereferenceable(32) %1) local_unnamed_addr #3 align 2 personality ptr @__gxx_personality_v0 {
  %3 = getelementptr inbounds nuw i8, ptr %1, i64 16
  %4 = load i32, ptr %3, align 8, !tbaa !58
  %5 = and i32 %4, 3
  %.not = icmp eq i32 %5, 0
  br i1 %.not, label %22, label %6

6:                                                ; preds = %2
  %7 = and i32 %4, 1
  %.not8 = icmp eq i32 %7, 0
  br i1 %.not8, label %12, label %8

8:                                                ; preds = %6
  %9 = getelementptr inbounds nuw i8, ptr %1, i64 24
  %10 = load i32, ptr %9, align 8, !tbaa !178
  %11 = getelementptr inbounds nuw i8, ptr %0, i64 24
  store i32 %10, ptr %11, align 8, !tbaa !178
  br label %12

12:                                               ; preds = %8, %6
  %13 = and i32 %4, 2
  %.not9 = icmp eq i32 %13, 0
  br i1 %.not9, label %18, label %14

14:                                               ; preds = %12
  %15 = getelementptr inbounds nuw i8, ptr %1, i64 28
  %16 = load i32, ptr %15, align 4, !tbaa !180
  %17 = getelementptr inbounds nuw i8, ptr %0, i64 28
  store i32 %16, ptr %17, align 4, !tbaa !180
  br label %18

18:                                               ; preds = %14, %12
  %19 = getelementptr inbounds nuw i8, ptr %0, i64 16
  %20 = load i32, ptr %19, align 8, !tbaa !58
  %21 = or i32 %20, %4
  store i32 %21, ptr %19, align 8, !tbaa !58
  br label %22

22:                                               ; preds = %18, %2
  %23 = getelementptr inbounds nuw i8, ptr %1, i64 8
  %24 = load i64, ptr %23, align 8, !tbaa !8
  %25 = and i64 %24, 1
  %.not10 = icmp eq i64 %25, 0
  br i1 %.not10, label %_ZN6google8protobuf8internal16InternalMetadata9MergeFromINS0_15UnknownFieldSetEEEvRKS2_.exit, label %_ZNK6google8protobuf8internal16InternalMetadata14unknown_fieldsINS0_15UnknownFieldSetEEERKT_PFS7_vE.exit

_ZNK6google8protobuf8internal16InternalMetadata14unknown_fieldsINS0_15UnknownFieldSetEEERKT_PFS7_vE.exit: ; preds = %22
  %26 = getelementptr inbounds nuw i8, ptr %0, i64 8
  %27 = and i64 %24, -4
  %28 = inttoptr i64 %27 to ptr
  %29 = getelementptr inbounds nuw i8, ptr %28, i64 8
  tail call void @_ZN6google8protobuf8internal16InternalMetadata11DoMergeFromINS0_15UnknownFieldSetEEEvRKT_(ptr noundef nonnull align 8 dereferenceable(8) %26, ptr noundef nonnull align 8 dereferenceable(24) %29)
  br label %_ZN6google8protobuf8internal16InternalMetadata9MergeFromINS0_15UnknownFieldSetEEEvRKS2_.exit

_ZN6google8protobuf8internal16InternalMetadata9MergeFromINS0_15UnknownFieldSetEEEvRKS2_.exit: ; preds = %22, %_ZNK6google8protobuf8internal16InternalMetadata14unknown_fieldsINS0_15UnknownFieldSetEEERKT_PFS7_vE.exit
  ret void
}